; Function Attrs: mustprogress nounwind uwtable
define internal fastcc void @_ZN6hermes12_GLOBAL__N_15GenJS5visitEPNS_6ESTree18BlockStatementNodeE(ptr noundef nonnull align 8 captures(none) dereferenceable(16) %this, ptr noundef %node) unnamed_addr #0 align 2 {
entry:
  %_body = getelementptr inbounds nuw i8, ptr %node, i64 56
  %0 = load ptr, ptr %_body, align 8
  %cmp.i.i = icmp eq ptr %_body, %0
  %1 = load ptr, ptr %this, align 8
  br i1 %cmp.i.i, label %if.then, label %if.end

if.then:                                          ; preds = %entry
  %OutBufEnd.i5.i = getelementptr inbounds nuw i8, ptr %1, i64 16
  %2 = load ptr, ptr %OutBufEnd.i5.i, align 8
  %OutBufCur.i6.i = getelementptr inbounds nuw i8, ptr %1, i64 24
  %3 = load ptr, ptr %OutBufCur.i6.i, align 8
  %sub.ptr.lhs.cast.i7.i = ptrtoint ptr %2 to i64
  %sub.ptr.rhs.cast.i8.i = ptrtoint ptr %3 to i64
  %sub.ptr.sub.i9.i = sub i64 %sub.ptr.lhs.cast.i7.i, %sub.ptr.rhs.cast.i8.i
  %cmp.i.i3 = icmp ult i64 %sub.ptr.sub.i9.i, 2
  br i1 %cmp.i.i3, label %if.then.i.i, label %if.then4.i.i

if.then.i.i:                                      ; preds = %if.then
  %call3.i.i = tail call noundef nonnull align 8 dereferenceable(36) ptr @_ZN4llvh11raw_ostream5writeEPKcm(ptr noundef nonnull align 8 dereferenceable(36) %1, ptr noundef nonnull @.str.271, i64 noundef 2) #12
  br label %return

if.then4.i.i:                                     ; preds = %if.then
  store i16 32123, ptr %3, align 1
  %4 = load ptr, ptr %OutBufCur.i6.i, align 8
  %add.ptr.i.i = getelementptr inbounds nuw i8, ptr %4, i64 2
  store ptr %add.ptr.i.i, ptr %OutBufCur.i6.i, align 8
  br label %return

if.end:                                           ; preds = %entry
  %OutBufCur.i = getelementptr inbounds nuw i8, ptr %1, i64 24
  %5 = load ptr, ptr %OutBufCur.i, align 8
  %OutBufEnd.i = getelementptr inbounds nuw i8, ptr %1, i64 16
  %6 = load ptr, ptr %OutBufEnd.i, align 8
  %cmp.not.i = icmp ult ptr %5, %6
  br i1 %cmp.not.i, label %if.end.i, label %if.then.i

if.then.i:                                        ; preds = %if.end
  %call.i = tail call noundef nonnull align 8 dereferenceable(36) ptr @_ZN4llvh11raw_ostream5writeEh(ptr noundef nonnull align 8 dereferenceable(36) %1, i8 noundef zeroext 123) #12
  br label %_ZN4llvh11raw_ostreamlsEc.exit

if.end.i:                                         ; preds = %if.end
  %incdec.ptr.i = getelementptr inbounds nuw i8, ptr %5, i64 1
  store ptr %incdec.ptr.i, ptr %OutBufCur.i, align 8
  store i8 123, ptr %5, align 1
  br label %_ZN4llvh11raw_ostreamlsEc.exit

_ZN4llvh11raw_ostreamlsEc.exit:                   ; preds = %if.then.i, %if.end.i
  %indent_.i = getelementptr inbounds nuw i8, ptr %this, i64 12
  %7 = load i32, ptr %indent_.i, align 4
  %add.i = add nsw i32 %7, 2
  store i32 %add.i, ptr %indent_.i, align 4
  %pretty_.i = getelementptr inbounds nuw i8, ptr %this, i64 8
  %8 = load i8, ptr %pretty_.i, align 8
  %tobool.i = trunc i8 %8 to i1
  br i1 %tobool.i, label %if.then.i5, label %_ZN6hermes12_GLOBAL__N_15GenJS7newlineEv.exit

if.then.i5:                                       ; preds = %_ZN4llvh11raw_ostreamlsEc.exit
  %9 = load ptr, ptr %this, align 8
  %call.i6 = tail call noundef nonnull align 8 dereferenceable(36) ptr @_ZN4llvh11raw_ostream5writeEh(ptr noundef nonnull align 8 dereferenceable(36) %9, i8 noundef zeroext 10) #12
  %10 = load i32, ptr %indent_.i, align 4
  %call2.i = tail call noundef nonnull align 8 dereferenceable(36) ptr @_ZN4llvh11raw_ostream6indentEj(ptr noundef nonnull align 8 dereferenceable(36) %call.i6, i32 noundef %10) #12
  br label %_ZN6hermes12_GLOBAL__N_15GenJS7newlineEv.exit

_ZN6hermes12_GLOBAL__N_15GenJS7newlineEv.exit:    ; preds = %_ZN4llvh11raw_ostreamlsEc.exit, %if.then.i5
  tail call fastcc void @_ZN6hermes12_GLOBAL__N_15GenJS13visitStmtListERN4llvh12simple_ilistINS_6ESTree4NodeEJEEEPS5_(ptr noundef nonnull align 8 dereferenceable(16) %this, ptr noundef nonnull align 8 dereferenceable(16) %_body)
  %11 = load i32, ptr %indent_.i, align 4
  %sub.i = add nsw i32 %11, -2
  store i32 %sub.i, ptr %indent_.i, align 4
  %12 = load i8, ptr %pretty_.i, align 8
  %tobool.i10 = trunc i8 %12 to i1
  br i1 %tobool.i10, label %if.then.i12, label %_ZN6hermes12_GLOBAL__N_15GenJS7newlineEv.exit16

if.then.i12:                                      ; preds = %_ZN6hermes12_GLOBAL__N_15GenJS7newlineEv.exit
  %13 = load ptr, ptr %this, align 8
  %call.i13 = tail call noundef nonnull align 8 dereferenceable(36) ptr @_ZN4llvh11raw_ostream5writeEh(ptr noundef nonnull align 8 dereferenceable(36) %13, i8 noundef zeroext 10) #12
  %14 = load i32, ptr %indent_.i, align 4
  %call2.i15 = tail call noundef nonnull align 8 dereferenceable(36) ptr @_ZN4llvh11raw_ostream6indentEj(ptr noundef nonnull align 8 dereferenceable(36) %call.i13, i32 noundef %14) #12
  br label %_ZN6hermes12_GLOBAL__N_15GenJS7newlineEv.exit16

_ZN6hermes12_GLOBAL__N_15GenJS7newlineEv.exit16:  ; preds = %_ZN6hermes12_GLOBAL__N_15GenJS7newlineEv.exit, %if.then.i12
  %15 = load ptr, ptr %this, align 8
  %OutBufCur.i17 = getelementptr inbounds nuw i8, ptr %15, i64 24
  %16 = load ptr, ptr %OutBufCur.i17, align 8
  %OutBufEnd.i18 = getelementptr inbounds nuw i8, ptr %15, i64 16
  %17 = load ptr, ptr %OutBufEnd.i18, align 8
  %cmp.not.i19 = icmp ult ptr %16, %17
  br i1 %cmp.not.i19, label %if.end.i23, label %if.then.i20

if.then.i20:                                      ; preds = %_ZN6hermes12_GLOBAL__N_15GenJS7newlineEv.exit16
  %call.i21 = tail call noundef nonnull align 8 dereferenceable(36) ptr @_ZN4llvh11raw_ostream5writeEh(ptr noundef nonnull align 8 dereferenceable(36) %15, i8 noundef zeroext 125) #12
  br label %return

if.end.i23:                                       ; preds = %_ZN6hermes12_GLOBAL__N_15GenJS7newlineEv.exit16
  %incdec.ptr.i24 = getelementptr inbounds nuw i8, ptr %16, i64 1
  store ptr %incdec.ptr.i24, ptr %OutBufCur.i17, align 8
  store i8 125, ptr %16, align 1
  br label %return

return:                                           ; preds = %if.end.i23, %if.then.i20, %if.then4.i.i, %if.then.i.i
  ret void
}